target datalayout = "e-m:e-p270:32:32-p271:32:32-p272:64:64-i64:64-i128:128-f80:128-n8:16:32:64-S128"
target triple = "x86_64-pc-linux-gnu"

%class.Klass = type <{ %class.Metadata, i32, i32, i32, i32, ptr, ptr, ptr, [8 x ptr], %class.OopHandle, ptr, ptr, ptr, ptr, ptr, i32, %class.AccessFlags, i64, i64, i8, i8, i16, i16, [2 x i8], i32, [4 x i8] }>
%class.Metadata = type { ptr }
%class.OopHandle = type { ptr }
%class.AccessFlags = type { i32 }
%class.SymbolHandleBase = type { ptr }
%class.Array.3 = type { i32, [1 x ptr] }
%class.anon.45 = type { i8 }
%class.anon.43 = type { i8 }
%class.Symbol = type { i32, i16, [2 x i8] }
%class.anon.54 = type { i8 }

; Function Attrs: mustprogress nounwind uwtable
define linkonce_odr hidden noundef i64 @_ZZN5ArrayIP5KlassE20base_offset_in_bytesEvENKUlvE_clEv(ptr noundef nonnull align 1 dereferenceable(1) %0) #1 comdat align 2 {
  %2 = alloca ptr, align 8
  %3 = alloca [16 x i8], align 16
  %4 = alloca ptr, align 8
  %5 = alloca ptr, align 8
  store ptr %0, ptr %2, align 8
  %6 = getelementptr inbounds [16 x i8], ptr %3, i64 0, i64 0
  store ptr %6, ptr %4, align 8
  %7 = load ptr, ptr %4, align 8
  %8 = getelementptr inbounds %class.Array.3, ptr %7, i32 0, i32 1
  store ptr %8, ptr %5, align 8
  %9 = load ptr, ptr %5, align 8
  %10 = getelementptr inbounds [16 x i8], ptr %3, i64 0, i64 0
  %11 = ptrtoint ptr %9 to i64
  %12 = ptrtoint ptr %10 to i64
  %13 = sub i64 %11, %12
  ret i64 %13
}

; Function Attrs: mustprogress nounwind uwtable
define linkonce_odr hidden noundef i64 @_ZZN5Klass28secondary_super_cache_offsetEvENKUlvE_clEv(ptr noundef nonnull align 1 dereferenceable(1) %0) #1 comdat align 2 {
  %2 = alloca ptr, align 8
  %3 = alloca [200 x i8], align 16
  %4 = alloca ptr, align 8
  %5 = alloca ptr, align 8
  store ptr %0, ptr %2, align 8
  %6 = getelementptr inbounds [200 x i8], ptr %3, i64 0, i64 0
  store ptr %6, ptr %4, align 8
  %7 = load ptr, ptr %4, align 8
  %8 = getelementptr inbounds %class.Klass, ptr %7, i32 0, i32 6
  store ptr %8, ptr %5, align 8
  %9 = load ptr, ptr %5, align 8
  %10 = getelementptr inbounds [200 x i8], ptr %3, i64 0, i64 0
  %11 = ptrtoint ptr %9 to i64
  %12 = ptrtoint ptr %10 to i64
  %13 = sub i64 %11, %12
  ret i64 %13
}

; Function Attrs: mustprogress nounwind uwtable
define linkonce_odr hidden noundef i32 @_ZN5ArrayIP5KlassE20base_offset_in_bytesEv() #1 comdat align 2 {
  %1 = alloca %class.anon.54, align 1
  %2 = call noundef i64 @_ZZN5ArrayIP5KlassE20base_offset_in_bytesEvENKUlvE_clEv(ptr noundef nonnull align 1 dereferenceable(1) %1)
  %3 = trunc i64 %2 to i32
  ret i32 %3
}

; Function Attrs: mustprogress nounwind uwtable
define linkonce_odr hidden noundef i32 @_Z11in_ByteSizei(i32 noundef %0) #1 comdat {
  %2 = alloca i32, align 4
  store i32 %0, ptr %2, align 4
  %3 = load i32, ptr %2, align 4
  ret i32 %3
}

; Function Attrs: mustprogress nounwind uwtable
define linkonce_odr hidden noundef i64 @_ZZN5Klass21primary_supers_offsetEvENKUlvE_clEv(ptr noundef nonnull align 1 dereferenceable(1) %0) #1 comdat align 2 {
  %2 = alloca ptr, align 8
  %3 = alloca [200 x i8], align 16
  %4 = alloca ptr, align 8
  %5 = alloca ptr, align 8
  store ptr %0, ptr %2, align 8
  %6 = getelementptr inbounds [200 x i8], ptr %3, i64 0, i64 0
  store ptr %6, ptr %4, align 8
  %7 = load ptr, ptr %4, align 8
  %8 = getelementptr inbounds %class.Klass, ptr %7, i32 0, i32 8
  store ptr %8, ptr %5, align 8
  %9 = load ptr, ptr %5, align 8
  %10 = getelementptr inbounds [200 x i8], ptr %3, i64 0, i64 0
  %11 = ptrtoint ptr %9 to i64
  %12 = ptrtoint ptr %10 to i64
  %13 = sub i64 %11, %12
  ret i64 %13
}

; Function Attrs: mustprogress nounwind uwtable
define linkonce_odr hidden noundef i32 @_ZN5Klass28secondary_super_cache_offsetEv() #1 comdat align 2 {
  %1 = alloca %class.anon.43, align 1
  %2 = call noundef i64 @_ZZN5Klass28secondary_super_cache_offsetEvENKUlvE_clEv(ptr noundef nonnull align 1 dereferenceable(1) %1)
  %3 = trunc i64 %2 to i32
  %4 = call noundef i32 @_Z11in_ByteSizei(i32 noundef %3)
  ret i32 %4
}

; Function Attrs: mustprogress nounwind uwtable
define linkonce_odr hidden noundef i32 @_ZN6Symbol16extract_refcountEj(i32 noundef %0) #1 comdat align 2 {
  %2 = alloca i32, align 4
  store i32 %0, ptr %2, align 4
  %3 = load i32, ptr %2, align 4
  %4 = and i32 %3, 65535
  ret i32 %4
}

; Function Attrs: mustprogress nounwind uwtable
define linkonce_odr hidden void @_ZN6Symbol24maybe_decrement_refcountEPS_(ptr noundef %0) #1 comdat align 2 {
  %2 = alloca ptr, align 8
  store ptr %0, ptr %2, align 8
  %3 = load ptr, ptr %2, align 8
  %4 = icmp ne ptr %3, null
  br i1 %4, label %5, label %7

5:                                                ; preds = %1
  %6 = load ptr, ptr %2, align 8
  call void @_ZN6Symbol18decrement_refcountEv(ptr noundef nonnull align 4 dereferenceable(8) %6)
  br label %7

7:                                                ; preds = %5, %1
  ret void
}

; Function Attrs: mustprogress nounwind uwtable
define linkonce_odr hidden noundef ptr @_ZNK5ArrayIP5KlassE4dataEv(ptr noundef nonnull align 8 dereferenceable(16) %0) #1 comdat align 2 {
  %2 = alloca ptr, align 8
  store ptr %0, ptr %2, align 8
  %3 = load ptr, ptr %2, align 8
  %4 = call noundef i32 @_ZN5ArrayIP5KlassE20base_offset_in_bytesEv()
  %5 = sext i32 %4 to i64
  %6 = getelementptr inbounds i8, ptr %3, i64 %5
  ret ptr %6
}

; Function Attrs: mustprogress nounwind uwtable
define linkonce_odr hidden noundef i32 @_Z8in_bytes8ByteSize(i32 noundef %0) #1 comdat {
  %2 = alloca i32, align 4
  store i32 %0, ptr %2, align 4
  %3 = load i32, ptr %2, align 4
  ret i32 %3
}

; Function Attrs: mustprogress nounwind uwtable
define linkonce_odr hidden noundef i32 @_ZN5Klass21primary_supers_offsetEv() #1 comdat align 2 {
  %1 = alloca %class.anon.45, align 1
  %2 = call noundef i64 @_ZZN5Klass21primary_supers_offsetEvENKUlvE_clEv(ptr noundef nonnull align 1 dereferenceable(1) %1)
  %3 = trunc i64 %2 to i32
  %4 = call noundef i32 @_Z11in_ByteSizei(i32 noundef %3)
  ret i32 %4
}

; Function Attrs: mustprogress nounwind uwtable
define linkonce_odr hidden noundef i32 @_ZNK5Klass18super_check_offsetEv(ptr noundef nonnull align 8 dereferenceable(196) %0) #1 comdat align 2 {
  %2 = alloca ptr, align 8
  store ptr %0, ptr %2, align 8
  %3 = load ptr, ptr %2, align 8
  %4 = getelementptr inbounds %class.Klass, ptr %3, i32 0, i32 4
  %5 = load i32, ptr %4, align 4
  ret i32 %5
}

; Function Attrs: mustprogress nounwind uwtable
define linkonce_odr hidden noundef i32 @_ZN5Klass19primary_super_limitEv() #1 comdat align 2 {
  ret i32 8
}

; Function Attrs: mustprogress nounwind uwtable
define linkonce_odr hidden noundef zeroext i1 @_ZNK5Klass20can_be_primary_superEv(ptr noundef nonnull align 8 dereferenceable(196) %0) #1 comdat align 2 {
  %2 = alloca ptr, align 8
  %3 = alloca i32, align 4
  store ptr %0, ptr %2, align 8
  %4 = load ptr, ptr %2, align 8
  %5 = call noundef i32 @_ZN5Klass28secondary_super_cache_offsetEv()
  %6 = call noundef i32 @_Z8in_bytes8ByteSize(i32 noundef %5)
  store i32 %6, ptr %3, align 4
  %7 = call noundef i32 @_ZNK5Klass18super_check_offsetEv(ptr noundef nonnull align 8 dereferenceable(196) %4)
  %8 = load i32, ptr %3, align 4
  %9 = icmp ne i32 %7, %8
  ret i1 %9
}

; Function Attrs: mustprogress nounwind uwtable
define linkonce_odr hidden noundef i32 @_ZNK6Symbol8refcountEv(ptr noundef nonnull align 4 dereferenceable(8) %0) #1 comdat align 2 {
  %2 = alloca ptr, align 8
  store ptr %0, ptr %2, align 8
  %3 = load ptr, ptr %2, align 8
  %4 = getelementptr inbounds %class.Symbol, ptr %3, i32 0, i32 0
  %5 = load volatile i32, ptr %4, align 4
  %6 = call noundef i32 @_ZN6Symbol16extract_refcountEj(i32 noundef %5)
  ret i32 %6
}

; Function Attrs: mustprogress nounwind uwtable
define linkonce_odr hidden void @_ZN16SymbolHandleBaseILb1EED2Ev(ptr noundef nonnull align 8 dereferenceable(8) %0) unnamed_addr #1 comdat align 2 {
  %2 = alloca ptr, align 8
  store ptr %0, ptr %2, align 8
  %3 = load ptr, ptr %2, align 8
  %4 = getelementptr inbounds %class.SymbolHandleBase, ptr %3, i32 0, i32 0
  %5 = load ptr, ptr %4, align 8
  call void @_ZN6Symbol24maybe_decrement_refcountEPS_(ptr noundef %5)
  ret void
}

; Function Attrs: mustprogress nounwind uwtable
define linkonce_odr hidden noundef ptr @_ZNK5ArrayIP5KlassE2atEi(ptr noundef nonnull align 8 dereferenceable(16) %0, i32 noundef %1) #1 comdat align 2 {
  %3 = alloca ptr, align 8
  %4 = alloca i32, align 4
  store ptr %0, ptr %3, align 8
  store i32 %1, ptr %4, align 4
  %5 = load ptr, ptr %3, align 8
  %6 = call noundef ptr @_ZNK5ArrayIP5KlassE4dataEv(ptr noundef nonnull align 8 dereferenceable(16) %5)
  %7 = load i32, ptr %4, align 4
  %8 = sext i32 %7 to i64
  %9 = getelementptr inbounds ptr, ptr %6, i64 %8
  %10 = load ptr, ptr %9, align 8
  ret ptr %10
}

; Function Attrs: mustprogress nounwind uwtable
define linkonce_odr hidden noundef i32 @_ZNK5ArrayIP5KlassE6lengthEv(ptr noundef nonnull align 8 dereferenceable(16) %0) #1 comdat align 2 {
  %2 = alloca ptr, align 8
  store ptr %0, ptr %2, align 8
  %3 = load ptr, ptr %2, align 8
  %4 = getelementptr inbounds %class.Array.3, ptr %3, i32 0, i32 0
  %5 = load i32, ptr %4, align 8
  ret i32 %5
}

; Function Attrs: mustprogress nounwind uwtable
define linkonce_odr hidden noundef ptr @_ZNK5Klass16secondary_supersEv(ptr noundef nonnull align 8 dereferenceable(196) %0) #1 comdat align 2 {
  %2 = alloca ptr, align 8
  store ptr %0, ptr %2, align 8
  %3 = load ptr, ptr %2, align 8
  %4 = getelementptr inbounds %class.Klass, ptr %3, i32 0, i32 7
  %5 = load ptr, ptr %4, align 8
  ret ptr %5
}

; Function Attrs: mustprogress nounwind uwtable
define linkonce_odr hidden noundef ptr @_ZNK5Klass22primary_super_of_depthEj(ptr noundef nonnull align 8 dereferenceable(196) %0, i32 noundef %1) #1 comdat align 2 {
  %3 = alloca ptr, align 8
  %4 = alloca i32, align 4
  %5 = alloca ptr, align 8
  store ptr %0, ptr %3, align 8
  store i32 %1, ptr %4, align 4
  %6 = load ptr, ptr %3, align 8
  %7 = getelementptr inbounds %class.Klass, ptr %6, i32 0, i32 8
  %8 = load i32, ptr %4, align 4
  %9 = zext i32 %8 to i64
  %10 = getelementptr inbounds [8 x ptr], ptr %7, i64 0, i64 %9
  %11 = load ptr, ptr %10, align 8
  store ptr %11, ptr %5, align 8
  %12 = load ptr, ptr %5, align 8
  ret ptr %12
}

; Function Attrs: mustprogress nounwind uwtable
define linkonce_odr hidden noundef i32 @_ZNK5Klass11super_depthEv(ptr noundef nonnull align 8 dereferenceable(196) %0) #1 comdat align 2 {
  %2 = alloca i32, align 4
  %3 = alloca ptr, align 8
  %4 = alloca i32, align 4
  store ptr %0, ptr %3, align 8
  %5 = load ptr, ptr %3, align 8
  %6 = call noundef zeroext i1 @_ZNK5Klass20can_be_primary_superEv(ptr noundef nonnull align 8 dereferenceable(196) %5)
  br i1 %6, label %9, label %7

7:                                                ; preds = %1
  %8 = call noundef i32 @_ZN5Klass19primary_super_limitEv()
  store i32 %8, ptr %2, align 4
  br label %18

9:                                                ; preds = %1
  %10 = call noundef i32 @_ZNK5Klass18super_check_offsetEv(ptr noundef nonnull align 8 dereferenceable(196) %5)
  %11 = call noundef i32 @_ZN5Klass21primary_supers_offsetEv()
  %12 = call noundef i32 @_Z8in_bytes8ByteSize(i32 noundef %11)
  %13 = sub i32 %10, %12
  %14 = zext i32 %13 to i64
  %15 = udiv i64 %14, 8
  %16 = trunc i64 %15 to i32
  store i32 %16, ptr %4, align 4
  %17 = load i32, ptr %4, align 4
  store i32 %17, ptr %2, align 4
  br label %18

18:                                               ; preds = %9, %7
  %19 = load i32, ptr %2, align 4
  ret i32 %19
}

; Function Attrs: mustprogress nounwind uwtable
define linkonce_odr hidden noundef ptr @_ZNK16SymbolHandleBaseILb1EEcvP6SymbolEv(ptr noundef nonnull align 8 dereferenceable(8) %0) #1 comdat align 2 {
  %2 = alloca ptr, align 8
  store ptr %0, ptr %2, align 8
  %3 = load ptr, ptr %2, align 8
  %4 = getelementptr inbounds %class.SymbolHandleBase, ptr %3, i32 0, i32 0
  %5 = load ptr, ptr %4, align 8
  ret ptr %5
}

; Function Attrs: mustprogress nounwind uwtable
define linkonce_odr hidden noundef ptr @_ZNK5Klass4nameEv(ptr noundef nonnull align 8 dereferenceable(196) %0) #1 comdat align 2 {
  %2 = alloca ptr, align 8
  store ptr %0, ptr %2, align 8
  %3 = load ptr, ptr %2, align 8
  %4 = getelementptr inbounds %class.Klass, ptr %3, i32 0, i32 5
  %5 = load ptr, ptr %4, align 8
  ret ptr %5
}

; Function Attrs: mustprogress nounwind uwtable
define linkonce_odr hidden void @_ZN16SymbolHandleBaseILb1EEC2EP6Symbol(ptr noundef nonnull align 8 dereferenceable(8) %0, ptr noundef %1) unnamed_addr #1 comdat align 2 {
  %3 = alloca ptr, align 8
  %4 = alloca ptr, align 8
  store ptr %0, ptr %3, align 8
  store ptr %1, ptr %4, align 8
  %5 = load ptr, ptr %3, align 8
  %6 = getelementptr inbounds %class.SymbolHandleBase, ptr %5, i32 0, i32 0
  %7 = load ptr, ptr %4, align 8
  store ptr %7, ptr %6, align 8
  %8 = load ptr, ptr %4, align 8
  %9 = icmp ne ptr %8, null
  br i1 %9, label %10, label %16

10:                                               ; preds = %2
  %11 = load ptr, ptr %4, align 8
  %12 = call noundef i32 @_ZNK6Symbol8refcountEv(ptr noundef nonnull align 4 dereferenceable(8) %11)
  %13 = icmp eq i32 %12, 1
  br i1 %13, label %14, label %16

14:                                               ; preds = %10
  %15 = load ptr, ptr %4, align 8
  call void @_ZN24TempSymbolCleanupDelayer13delay_cleanupEP6Symbol(ptr noundef %15)
  br label %16

16:                                               ; preds = %14, %10, %2
  ret void
}

; Function Attrs: mustprogress nounwind uwtable
define hidden noundef zeroext i1 @_ZN20VM_BaseGetOrSetLocal13is_assignableEPKcP5KlassP6Thread(ptr noundef %0, ptr noundef %1, ptr noundef %2) #1 align 2 {
  %4 = alloca i1, align 1
  %5 = alloca ptr, align 8
  %6 = alloca ptr, align 8
  %7 = alloca ptr, align 8
  %8 = alloca i32, align 4
  %9 = alloca %class.SymbolHandleBase, align 8
  %10 = alloca i32, align 4
  %11 = alloca i32, align 4
  %12 = alloca i32, align 4
  %13 = alloca ptr, align 8
  store ptr %0, ptr %5, align 8
  store ptr %1, ptr %6, align 8
  store ptr %2, ptr %7, align 8
  %14 = load ptr, ptr %5, align 8
  %15 = call i64 @strlen(ptr noundef %14) #12
  %16 = trunc i64 %15 to i32
  store i32 %16, ptr %8, align 4
  %17 = load ptr, ptr %5, align 8
  %18 = getelementptr inbounds i8, ptr %17, i64 0
  %19 = load i8, ptr %18, align 1
  %20 = sext i8 %19 to i32
  %21 = icmp eq i32 %20, 76
  br i1 %21, label %22, label %36

22:                                               ; preds = %3
  %23 = load ptr, ptr %5, align 8
  %24 = load i32, ptr %8, align 4
  %25 = sub nsw i32 %24, 1
  %26 = sext i32 %25 to i64
  %27 = getelementptr inbounds i8, ptr %23, i64 %26
  %28 = load i8, ptr %27, align 1
  %29 = sext i8 %28 to i32
  %30 = icmp eq i32 %29, 59
  br i1 %30, label %31, label %36

31:                                               ; preds = %22
  %32 = load ptr, ptr %5, align 8
  %33 = getelementptr inbounds i8, ptr %32, i32 1
  store ptr %33, ptr %5, align 8
  %34 = load i32, ptr %8, align 4
  %35 = sub nsw i32 %34, 2
  store i32 %35, ptr %8, align 4
  br label %36

36:                                               ; preds = %31, %22, %3
  %37 = load ptr, ptr %5, align 8
  %38 = load i32, ptr %8, align 4
  %39 = call noundef ptr @_ZN11SymbolTable10new_symbolEPKci(ptr noundef %37, i32 noundef %38)
  call void @_ZN16SymbolHandleBaseILb1EEC2EP6Symbol(ptr noundef nonnull align 8 dereferenceable(8) %9, ptr noundef %39)
  %40 = load ptr, ptr %6, align 8
  %41 = call noundef ptr @_ZNK5Klass4nameEv(ptr noundef nonnull align 8 dereferenceable(196) %40)
  %42 = call noundef ptr @_ZNK16SymbolHandleBaseILb1EEcvP6SymbolEv(ptr noundef nonnull align 8 dereferenceable(8) %9)
  %43 = icmp eq ptr %41, %42
  br i1 %43, label %44, label %45

44:                                               ; preds = %36
  store i1 true, ptr %4, align 1
  store i32 1, ptr %10, align 4
  br label %85

45:                                               ; preds = %36
  %46 = load ptr, ptr %6, align 8
  %47 = call noundef i32 @_ZNK5Klass11super_depthEv(ptr noundef nonnull align 8 dereferenceable(196) %46)
  store i32 %47, ptr %11, align 4
  store i32 0, ptr %12, align 4
  br label %48

48:                                               ; preds = %61, %45
  %49 = load i32, ptr %12, align 4
  %50 = load i32, ptr %11, align 4
  %51 = icmp slt i32 %49, %50
  br i1 %51, label %52, label %64

52:                                               ; preds = %48
  %53 = load ptr, ptr %6, align 8
  %54 = load i32, ptr %12, align 4
  %55 = call noundef ptr @_ZNK5Klass22primary_super_of_depthEj(ptr noundef nonnull align 8 dereferenceable(196) %53, i32 noundef %54)
  %56 = call noundef ptr @_ZNK5Klass4nameEv(ptr noundef nonnull align 8 dereferenceable(196) %55)
  %57 = call noundef ptr @_ZNK16SymbolHandleBaseILb1EEcvP6SymbolEv(ptr noundef nonnull align 8 dereferenceable(8) %9)
  %58 = icmp eq ptr %56, %57
  br i1 %58, label %59, label %60

59:                                               ; preds = %52
  store i1 true, ptr %4, align 1
  store i32 1, ptr %10, align 4
  br label %85

60:                                               ; preds = %52
  br label %61

61:                                               ; preds = %60
  %62 = load i32, ptr %12, align 4
  %63 = add nsw i32 %62, 1
  store i32 %63, ptr %12, align 4
  br label %48, !llvm.loop !15

64:                                               ; preds = %48
  %65 = load ptr, ptr %6, align 8
  %66 = call noundef ptr @_ZNK5Klass16secondary_supersEv(ptr noundef nonnull align 8 dereferenceable(196) %65)
  store ptr %66, ptr %13, align 8
  store i32 0, ptr %12, align 4
  br label %67

67:                                               ; preds = %81, %64
  %68 = load i32, ptr %12, align 4
  %69 = load ptr, ptr %13, align 8
  %70 = call noundef i32 @_ZNK5ArrayIP5KlassE6lengthEv(ptr noundef nonnull align 8 dereferenceable(16) %69)
  %71 = icmp slt i32 %68, %70
  br i1 %71, label %72, label %84

72:                                               ; preds = %67
  %73 = load ptr, ptr %13, align 8
  %74 = load i32, ptr %12, align 4
  %75 = call noundef ptr @_ZNK5ArrayIP5KlassE2atEi(ptr noundef nonnull align 8 dereferenceable(16) %73, i32 noundef %74)
  %76 = call noundef ptr @_ZNK5Klass4nameEv(ptr noundef nonnull align 8 dereferenceable(196) %75)
  %77 = call noundef ptr @_ZNK16SymbolHandleBaseILb1EEcvP6SymbolEv(ptr noundef nonnull align 8 dereferenceable(8) %9)
  %78 = icmp eq ptr %76, %77
  br i1 %78, label %79, label %80

79:                                               ; preds = %72
  store i1 true, ptr %4, align 1
  store i32 1, ptr %10, align 4
  br label %85

80:                                               ; preds = %72
  br label %81

81:                                               ; preds = %80
  %82 = load i32, ptr %12, align 4
  %83 = add nsw i32 %82, 1
  store i32 %83, ptr %12, align 4
  br label %67, !llvm.loop !16

84:                                               ; preds = %67
  store i1 false, ptr %4, align 1
  store i32 1, ptr %10, align 4
  br label %85

85:                                               ; preds = %84, %79, %59, %44
  call void @_ZN16SymbolHandleBaseILb1EED2Ev(ptr noundef nonnull align 8 dereferenceable(8) %9) #10
  %86 = load i1, ptr %4, align 1
  ret i1 %86
}