; Function Attrs: mustprogress nounwind uwtable
define hidden noundef zeroext i1 @_ZN20VM_BaseGetOrSetLocal13is_assignableEPKcP5KlassP6Thread(ptr noundef %0, ptr nocapture noundef readonly %1, ptr nocapture readnone %2) local_unnamed_addr #0 align 2 {
  %4 = tail call i64 @strlen(ptr noundef nonnull dereferenceable(1) %0) #19
  %5 = trunc i64 %4 to i32
  %6 = load i8, ptr %0, align 1
  %7 = icmp eq i8 %6, 76
  br i1 %7, label %8, label %17

8:                                                ; preds = %3
  %9 = shl i64 %4, 32
  %sext = add i64 %9, -4294967296
  %10 = ashr exact i64 %sext, 32
  %11 = getelementptr inbounds i8, ptr %0, i64 %10
  %12 = load i8, ptr %11, align 1
  %13 = icmp eq i8 %12, 59
  br i1 %13, label %14, label %17

14:                                               ; preds = %8
  %15 = getelementptr inbounds i8, ptr %0, i64 1
  %16 = add nsw i32 %5, -2
  br label %17

17:                                               ; preds = %14, %8, %3
  %.023 = phi i32 [ %16, %14 ], [ %5, %8 ], [ %5, %3 ]
  %.022 = phi ptr [ %15, %14 ], [ %0, %8 ], [ %0, %3 ]
  %18 = tail call noundef ptr @_ZN11SymbolTable10new_symbolEPKci(ptr noundef nonnull %.022, i32 noundef %.023) #17
  %.not.i = icmp eq ptr %18, null
  br i1 %.not.i, label %_ZN16SymbolHandleBaseILb1EEC2EP6Symbol.exit, label %19

19:                                               ; preds = %17
  %20 = load volatile i32, ptr %18, align 4
  %21 = and i32 %20, 65535
  %22 = icmp eq i32 %21, 1
  br i1 %22, label %23, label %_ZN16SymbolHandleBaseILb1EEC2EP6Symbol.exit

23:                                               ; preds = %19
  tail call void @_ZN24TempSymbolCleanupDelayer13delay_cleanupEP6Symbol(ptr noundef nonnull %18) #17
  br label %_ZN16SymbolHandleBaseILb1EEC2EP6Symbol.exit

_ZN16SymbolHandleBaseILb1EEC2EP6Symbol.exit:      ; preds = %17, %19, %23
  %24 = getelementptr inbounds i8, ptr %1, i64 24
  %25 = load ptr, ptr %24, align 8
  %26 = icmp eq ptr %25, %18
  br i1 %26, label %.loopexit, label %27

27:                                               ; preds = %_ZN16SymbolHandleBaseILb1EEC2EP6Symbol.exit
  %28 = getelementptr inbounds i8, ptr %1, i64 20
  %29 = load i32, ptr %28, align 4
  %.not.i24 = icmp eq i32 %29, 32
  %30 = add i32 %29, -48
  %31 = lshr i32 %30, 3
  %.0.i = select i1 %.not.i24, i32 8, i32 %31
  %.not = icmp eq i32 %.0.i, 0
  br i1 %.not, label %._crit_edge, label %.lr.ph

.lr.ph:                                           ; preds = %27
  %32 = getelementptr inbounds i8, ptr %1, i64 48
  %wide.trip.count = zext nneg i32 %.0.i to i64
  br label %34

33:                                               ; preds = %34
  %indvars.iv.next = add nuw nsw i64 %indvars.iv, 1
  %exitcond.not = icmp eq i64 %indvars.iv.next, %wide.trip.count
  br i1 %exitcond.not, label %._crit_edge, label %34, !llvm.loop !18

34:                                               ; preds = %.lr.ph, %33
  %indvars.iv = phi i64 [ 0, %.lr.ph ], [ %indvars.iv.next, %33 ]
  %35 = getelementptr inbounds [8 x ptr], ptr %32, i64 0, i64 %indvars.iv
  %36 = load ptr, ptr %35, align 8
  %37 = getelementptr inbounds i8, ptr %36, i64 24
  %38 = load ptr, ptr %37, align 8
  %39 = icmp eq ptr %38, %18
  br i1 %39, label %.loopexit, label %33

._crit_edge:                                      ; preds = %33, %27
  %40 = getelementptr inbounds i8, ptr %1, i64 40
  %41 = load ptr, ptr %40, align 8
  %42 = getelementptr inbounds i8, ptr %41, i64 8
  %43 = load i32, ptr %41, align 8
  %44 = icmp sgt i32 %43, 0
  br i1 %44, label %.lr.ph32.preheader, label %.loopexit

.lr.ph32.preheader:                               ; preds = %._crit_edge
  %wide.trip.count40 = zext nneg i32 %43 to i64
  br label %.lr.ph32

.lr.ph32:                                         ; preds = %.lr.ph32, %.lr.ph32.preheader
  %indvars.iv37 = phi i64 [ 0, %.lr.ph32.preheader ], [ %indvars.iv.next38, %.lr.ph32 ]
  %45 = getelementptr inbounds ptr, ptr %42, i64 %indvars.iv37
  %46 = load ptr, ptr %45, align 8
  %47 = getelementptr inbounds i8, ptr %46, i64 24
  %48 = load ptr, ptr %47, align 8
  %49 = icmp eq ptr %48, %18
  %indvars.iv.next38 = add nuw nsw i64 %indvars.iv37, 1
  %exitcond41.not = icmp eq i64 %indvars.iv.next38, %wide.trip.count40
  %or.cond = select i1 %49, i1 true, i1 %exitcond41.not
  br i1 %or.cond, label %.loopexit, label %.lr.ph32, !llvm.loop !19

.loopexit:                                        ; preds = %34, %.lr.ph32, %._crit_edge, %_ZN16SymbolHandleBaseILb1EEC2EP6Symbol.exit
  %.0 = phi i1 [ true, %_ZN16SymbolHandleBaseILb1EEC2EP6Symbol.exit ], [ false, %._crit_edge ], [ %49, %.lr.ph32 ], [ true, %34 ]
  br i1 %.not.i, label %_ZN16SymbolHandleBaseILb1EED2Ev.exit, label %50

50:                                               ; preds = %.loopexit
  tail call void @_ZN6Symbol18decrement_refcountEv(ptr noundef nonnull align 4 dereferenceable(8) %18) #17
  br label %_ZN16SymbolHandleBaseILb1EED2Ev.exit

_ZN16SymbolHandleBaseILb1EED2Ev.exit:             ; preds = %.loopexit, %50
  ret i1 %.0
}